; Function Attrs: mustprogress uwtable
define internal void @"_ZNK4$_269to_stringB5cxx11E6insn_t"(ptr dead_on_unwind noalias writable sret(%"class.std::__cxx11::basic_string") align 8 %0, ptr nocapture nonnull readnone align 8 %1, i64 %2) unnamed_addr #1 align 2 personality ptr @__gxx_personality_v0 {
  %4 = alloca %"class.std::__cxx11::basic_stringstream", align 8
  call void @_ZNSt7__cxx1118basic_stringstreamIcSt11char_traitsIcESaIcEEC1Ev(ptr noundef nonnull align 8 dereferenceable(128) %4)
  %5 = lshr i64 %2, 20
  %6 = and i64 %5, 2046
  %7 = lshr i64 %2, 9
  %8 = and i64 %7, 2048
  %9 = and i64 %2, 1044480
  %10 = shl i64 %2, 32
  %11 = ashr i64 %10, 43
  %12 = and i64 %11, 4293918720
  %13 = or disjoint i64 %8, %9
  %14 = or disjoint i64 %13, %6
  %15 = or disjoint i64 %14, %12
  %16 = trunc i64 %15 to i32
  %17 = getelementptr inbounds i8, ptr %4, i64 16
  %18 = invoke noundef nonnull align 8 dereferenceable(8) ptr @_ZStlsISt11char_traitsIcEERSt13basic_ostreamIcT_ES5_PKc(ptr noundef nonnull align 8 dereferenceable(8) %17, ptr noundef nonnull @.str.2081)
          to label %19 unwind label %32

19:                                               ; preds = %3
  %20 = icmp sgt i32 %16, -1
  %21 = select i1 %20, i8 43, i8 45
  %22 = invoke noundef nonnull align 8 dereferenceable(8) ptr @_ZStlsISt11char_traitsIcEERSt13basic_ostreamIcT_ES5_c(ptr noundef nonnull align 8 dereferenceable(8) %18, i8 noundef signext %21)
          to label %23 unwind label %32

23:                                               ; preds = %19
  %24 = invoke noundef nonnull align 8 dereferenceable(8) ptr @_ZNSolsEPFRSt8ios_baseS0_E(ptr noundef nonnull align 8 dereferenceable(8) %22, ptr noundef nonnull @_ZSt3hexRSt8ios_base)
          to label %25 unwind label %32

25:                                               ; preds = %23
  %26 = invoke noundef nonnull align 8 dereferenceable(8) ptr @_ZStlsISt11char_traitsIcEERSt13basic_ostreamIcT_ES5_PKc(ptr noundef nonnull align 8 dereferenceable(8) %24, ptr noundef nonnull @.str.2082)
          to label %27 unwind label %32

27:                                               ; preds = %25
  %28 = call i32 @llvm.abs.i32(i32 %16, i1 true)
  %29 = invoke noundef nonnull align 8 dereferenceable(8) ptr @_ZNSolsEi(ptr noundef nonnull align 8 dereferenceable(8) %26, i32 noundef %28)
          to label %30 unwind label %32

30:                                               ; preds = %27
  invoke void @_ZNKRSt7__cxx1118basic_stringstreamIcSt11char_traitsIcESaIcEE3strEv(ptr dead_on_unwind writable sret(%"class.std::__cxx11::basic_string") align 8 %0, ptr noundef nonnull align 8 dereferenceable(128) %4)
          to label %31 unwind label %32

31:                                               ; preds = %30
  call void @_ZNSt7__cxx1118basic_stringstreamIcSt11char_traitsIcESaIcEED1Ev(ptr noundef nonnull align 8 dereferenceable(128) %4) #19
  ret void

32:                                               ; preds = %30, %27, %25, %23, %19, %3
  %33 = landingpad { ptr, i32 }
          cleanup
  call void @_ZNSt7__cxx1118basic_stringstreamIcSt11char_traitsIcESaIcEED1Ev(ptr noundef nonnull align 8 dereferenceable(128) %4) #19
  resume { ptr, i32 } %33
}